target datalayout = "e-m:e-p270:32:32-p271:32:32-p272:64:64-i64:64-i128:128-f80:128-n8:16:32:64-S128"
target triple = "x86_64-pc-linux-gnu"

@.str.15 = private unnamed_addr constant [8 x i8] c"base/%s\00", align 1
@.str.16 = private unnamed_addr constant [10 x i8] c"pgsql_tmp\00", align 1
@.str.17 = private unnamed_addr constant [12 x i8] c"%s/%u/%s/%s\00", align 1
@.str.18 = private unnamed_addr constant [10 x i8] c"pg_tblspc\00", align 1
@.str.19 = private unnamed_addr constant [16 x i8] c"PG_18_202502112\00", align 1

; Function Attrs: nounwind uwtable
define dso_local void @TempTablespacePath(ptr noundef %0, i32 noundef %1) #0 {
  %3 = alloca ptr, align 8
  %4 = alloca i32, align 4
  store ptr %0, ptr %3, align 8
  store i32 %1, ptr %4, align 4
  %5 = load i32, ptr %4, align 4
  %6 = icmp eq i32 %5, 0
  br i1 %6, label %13, label %7

7:                                                ; preds = %2
  %8 = load i32, ptr %4, align 4
  %9 = icmp eq i32 %8, 1663
  br i1 %9, label %13, label %10

10:                                               ; preds = %7
  %11 = load i32, ptr %4, align 4
  %12 = icmp eq i32 %11, 1664
  br i1 %12, label %13, label %16

13:                                               ; preds = %10, %7, %2
  %14 = load ptr, ptr %3, align 8
  %15 = call i32 (ptr, i64, ptr, ...) @pg_snprintf(ptr noundef %14, i64 noundef 1024, ptr noundef @.str.15, ptr noundef @.str.16)
  br label %20

16:                                               ; preds = %10
  %17 = load ptr, ptr %3, align 8
  %18 = load i32, ptr %4, align 4
  %19 = call i32 (ptr, i64, ptr, ...) @pg_snprintf(ptr noundef %17, i64 noundef 1024, ptr noundef @.str.17, ptr noundef @.str.18, i32 noundef %18, ptr noundef @.str.19, ptr noundef @.str.16)
  br label %20

20:                                               ; preds = %16, %13
  ret void
}