; Function Attrs: nounwind uwtable
define dso_local void @TempTablespacePath(ptr noundef %0, i32 noundef %1) local_unnamed_addr #0 {
  switch i32 %1, label %5 [
    i32 1664, label %3
    i32 1663, label %3
    i32 0, label %3
  ]

3:                                                ; preds = %2, %2, %2
  %4 = tail call i32 (ptr, i64, ptr, ...) @pg_snprintf(ptr noundef %0, i64 noundef 1024, ptr noundef nonnull @.str.15, ptr noundef nonnull @.str.16) #25
  br label %7

5:                                                ; preds = %2
  %6 = tail call i32 (ptr, i64, ptr, ...) @pg_snprintf(ptr noundef %0, i64 noundef 1024, ptr noundef nonnull @.str.17, ptr noundef nonnull @.str.18, i32 noundef %1, ptr noundef nonnull @.str.19, ptr noundef nonnull @.str.16) #25
  br label %7

7:                                                ; preds = %5, %3
  ret void
}